; Function Attrs: nounwind uwtable
define hidden void @X11_RaiseWindow(ptr noundef readonly captures(none) %0, ptr noundef %1) local_unnamed_addr #0 {
  %3 = getelementptr inbounds nuw i8, ptr %1, i64 392
  %4 = load ptr, ptr %3, align 8
  %5 = getelementptr inbounds nuw i8, ptr %4, i64 336
  %6 = load ptr, ptr %5, align 8
  %7 = load ptr, ptr %6, align 8
  %8 = tail call zeroext i1 @SDL_GetHintBoolean_REAL(ptr noundef nonnull @.str.27, i1 noundef zeroext true) #12
  %9 = load ptr, ptr @X11_XRaiseWindow, align 8
  %10 = getelementptr inbounds nuw i8, ptr %4, i64 8
  %11 = load i64, ptr %10, align 8
  %12 = tail call i32 %9(ptr noundef %7, i64 noundef %11) #12
  br i1 %8, label %13, label %14

13:                                               ; preds = %2
  tail call fastcc void @X11_SetWindowActive(ptr noundef %0, ptr noundef nonnull %1)
  br label %14

14:                                               ; preds = %13, %2
  %15 = load ptr, ptr @X11_XFlush, align 8
  %16 = tail call i32 %15(ptr noundef %7) #12
  ret void
}